target datalayout = "e-m:e-p270:32:32-p271:32:32-p272:64:64-i64:64-i128:128-f80:128-n8:16:32:64-S128"
target triple = "x86_64-pc-linux-gnu"

%struct.ItemPointerData = type { %struct.BlockIdData, i16 }
%struct.BlockIdData = type { i16, i16 }
%struct.HeapTupleData = type { i32, %struct.ItemPointerData, i32, ptr }
%struct.ScanKeyData = type { i32, i16, i16, i32, i32, %struct.FmgrInfo, i64 }
%struct.FmgrInfo = type { ptr, i32, i16, i8, i8, i8, ptr, ptr, ptr }

; Function Attrs: inlinehint nounwind uwtable
define internal i64 @Int16GetDatum(i16 noundef signext %0) #5 {
  %2 = alloca i16, align 2
  store i16 %0, ptr %2, align 2
  %3 = load i16, ptr %2, align 2
  %4 = sext i16 %3 to i64
  ret i64 %4
}

; Function Attrs: inlinehint nounwind uwtable
define internal i64 @ObjectIdGetDatum(i32 noundef %0) #5 {
  %2 = alloca i32, align 4
  store i32 %0, ptr %2, align 4
  %3 = load i32, ptr %2, align 4
  %4 = zext i32 %3 to i64
  ret i64 %4
}

; Function Attrs: nounwind uwtable
define dso_local void @RemoveStatistics(i32 noundef %0, i16 noundef signext %1) #0 {
  %3 = alloca i32, align 4
  %4 = alloca i16, align 2
  %5 = alloca ptr, align 8
  %6 = alloca ptr, align 8
  %7 = alloca [2 x %struct.ScanKeyData], align 16
  %8 = alloca i32, align 4
  %9 = alloca ptr, align 8
  store i32 %0, ptr %3, align 4
  store i16 %1, ptr %4, align 2
  call void @llvm.lifetime.start.p0(i64 8, ptr %5) #10
  call void @llvm.lifetime.start.p0(i64 8, ptr %6) #10
  call void @llvm.lifetime.start.p0(i64 144, ptr %7) #10
  call void @llvm.lifetime.start.p0(i64 4, ptr %8) #10
  call void @llvm.lifetime.start.p0(i64 8, ptr %9) #10
  %10 = call ptr @table_open(i32 noundef 2619, i32 noundef 3)
  store ptr %10, ptr %5, align 8
  %11 = getelementptr inbounds [2 x %struct.ScanKeyData], ptr %7, i64 0, i64 0
  %12 = load i32, ptr %3, align 4
  %13 = call i64 @ObjectIdGetDatum(i32 noundef %12)
  call void @ScanKeyInit(ptr noundef %11, i16 noundef signext 1, i16 noundef zeroext 3, i32 noundef 184, i64 noundef %13)
  %14 = load i16, ptr %4, align 2
  %15 = sext i16 %14 to i32
  %16 = icmp eq i32 %15, 0
  br i1 %16, label %17, label %18

17:                                               ; preds = %2
  store i32 1, ptr %8, align 4
  br label %22

18:                                               ; preds = %2
  %19 = getelementptr inbounds [2 x %struct.ScanKeyData], ptr %7, i64 0, i64 1
  %20 = load i16, ptr %4, align 2
  %21 = call i64 @Int16GetDatum(i16 noundef signext %20)
  call void @ScanKeyInit(ptr noundef %19, i16 noundef signext 2, i16 noundef zeroext 3, i32 noundef 63, i64 noundef %21)
  store i32 2, ptr %8, align 4
  br label %22

22:                                               ; preds = %18, %17
  %23 = load ptr, ptr %5, align 8
  %24 = load i32, ptr %8, align 4
  %25 = getelementptr inbounds [2 x %struct.ScanKeyData], ptr %7, i64 0, i64 0
  %26 = call ptr @systable_beginscan(ptr noundef %23, i32 noundef 2696, i1 noundef zeroext true, ptr noundef null, i32 noundef %24, ptr noundef %25)
  store ptr %26, ptr %6, align 8
  br label %27

27:                                               ; preds = %31, %22
  %28 = load ptr, ptr %6, align 8
  %29 = call ptr @systable_getnext(ptr noundef %28)
  store ptr %29, ptr %9, align 8
  %30 = icmp ne ptr %29, null
  br i1 %30, label %31, label %35

31:                                               ; preds = %27
  %32 = load ptr, ptr %5, align 8
  %33 = load ptr, ptr %9, align 8
  %34 = getelementptr inbounds nuw %struct.HeapTupleData, ptr %33, i32 0, i32 1
  call void @CatalogTupleDelete(ptr noundef %32, ptr noundef %34)
  br label %27, !llvm.loop !20

35:                                               ; preds = %27
  %36 = load ptr, ptr %6, align 8
  call void @systable_endscan(ptr noundef %36)
  %37 = load ptr, ptr %5, align 8
  call void @table_close(ptr noundef %37, i32 noundef 3)
  call void @llvm.lifetime.end.p0(i64 8, ptr %9) #10
  call void @llvm.lifetime.end.p0(i64 4, ptr %8) #10
  call void @llvm.lifetime.end.p0(i64 144, ptr %7) #10
  call void @llvm.lifetime.end.p0(i64 8, ptr %6) #10
  call void @llvm.lifetime.end.p0(i64 8, ptr %5) #10
  ret void
}