; Function Attrs: nounwind uwtable
define dso_local void @RemoveStatistics(i32 noundef %0, i16 noundef signext %1) local_unnamed_addr #0 {
  %3 = alloca [2 x %struct.ScanKeyData], align 16
  call void @llvm.lifetime.start.p0(i64 144, ptr nonnull %3) #11
  %4 = tail call ptr @table_open(i32 noundef 2619, i32 noundef 3) #11
  %5 = zext i32 %0 to i64
  call void @ScanKeyInit(ptr noundef nonnull %3, i16 noundef signext 1, i16 noundef zeroext 3, i32 noundef 184, i64 noundef %5) #11
  %6 = icmp eq i16 %1, 0
  br i1 %6, label %10, label %7

7:                                                ; preds = %2
  %8 = getelementptr inbounds nuw i8, ptr %3, i64 72
  %9 = sext i16 %1 to i64
  call void @ScanKeyInit(ptr noundef nonnull %8, i16 noundef signext 2, i16 noundef zeroext 3, i32 noundef 63, i64 noundef %9) #11
  br label %10

10:                                               ; preds = %2, %7
  %.0 = phi i32 [ 2, %7 ], [ 1, %2 ]
  %11 = call ptr @systable_beginscan(ptr noundef %4, i32 noundef 2696, i1 noundef zeroext true, ptr noundef null, i32 noundef %.0, ptr noundef nonnull %3) #11
  %12 = call ptr @systable_getnext(ptr noundef %11) #11
  %.not10 = icmp eq ptr %12, null
  br i1 %.not10, label %._crit_edge, label %.lr.ph

.lr.ph:                                           ; preds = %10, %.lr.ph
  %13 = phi ptr [ %15, %.lr.ph ], [ %12, %10 ]
  %14 = getelementptr inbounds nuw i8, ptr %13, i64 4
  call void @CatalogTupleDelete(ptr noundef %4, ptr noundef nonnull %14) #11
  %15 = call ptr @systable_getnext(ptr noundef %11) #11
  %.not = icmp eq ptr %15, null
  br i1 %.not, label %._crit_edge, label %.lr.ph, !llvm.loop !20

._crit_edge:                                      ; preds = %.lr.ph, %10
  call void @systable_endscan(ptr noundef %11) #11
  call void @table_close(ptr noundef %4, i32 noundef 3) #11
  call void @llvm.lifetime.end.p0(i64 144, ptr nonnull %3) #11
  ret void
}